target datalayout = "e-m:e-p270:32:32-p271:32:32-p272:64:64-i64:64-i128:128-f80:128-n8:16:32:64-S128"
target triple = "x86_64-pc-linux-gnu"

%"class.llvm::APInt" = type <{ %union.anon, i32, [4 x i8] }>
%union.anon = type { i64 }
%"class.llvm::ArrayRef" = type { ptr, i64 }

; Function Attrs: mustprogress nounwind uwtable
define linkonce_odr hidden noundef i32 @_ZN4llvm5APInt11getNumWordsEj(i32 noundef %0) #0 comdat align 2 {
  %2 = alloca i32, align 4
  store i32 %0, ptr %2, align 4
  %3 = load i32, ptr %2, align 4
  %4 = zext i32 %3 to i64
  %5 = add i64 %4, 64
  %6 = sub i64 %5, 1
  %7 = udiv i64 %6, 64
  %8 = trunc i64 %7 to i32
  ret i32 %8
}

; Function Attrs: mustprogress nounwind uwtable
define linkonce_odr hidden noundef nonnull align 8 dereferenceable(12) ptr @_ZN4llvm5APInt15clearUnusedBitsEv(ptr noundef nonnull align 8 dereferenceable(12) %0) #0 comdat align 2 {
  %2 = alloca ptr, align 8
  %3 = alloca i32, align 4
  %4 = alloca i64, align 8
  store ptr %0, ptr %2, align 8
  %5 = load ptr, ptr %2, align 8
  %6 = getelementptr inbounds nuw %"class.llvm::APInt", ptr %5, i32 0, i32 1
  %7 = load i32, ptr %6, align 8
  %8 = sub i32 %7, 1
  %9 = urem i32 %8, 64
  %10 = add i32 %9, 1
  store i32 %10, ptr %3, align 4
  %11 = load i32, ptr %3, align 4
  %12 = sub i32 64, %11
  %13 = zext i32 %12 to i64
  %14 = lshr i64 -1, %13
  store i64 %14, ptr %4, align 8
  %15 = getelementptr inbounds nuw %"class.llvm::APInt", ptr %5, i32 0, i32 1
  %16 = load i32, ptr %15, align 8
  %17 = icmp eq i32 %16, 0
  br i1 %17, label %18, label %19

18:                                               ; preds = %1
  store i64 0, ptr %4, align 8
  br label %19

19:                                               ; preds = %18, %1
  %20 = call noundef zeroext i1 @_ZNK4llvm5APInt12isSingleWordEv(ptr noundef nonnull align 8 dereferenceable(12) %5)
  br i1 %20, label %21, label %26

21:                                               ; preds = %19
  %22 = load i64, ptr %4, align 8
  %23 = getelementptr inbounds nuw %"class.llvm::APInt", ptr %5, i32 0, i32 0
  %24 = load i64, ptr %23, align 8
  %25 = and i64 %24, %22
  store i64 %25, ptr %23, align 8
  br label %36

26:                                               ; preds = %19
  %27 = load i64, ptr %4, align 8
  %28 = getelementptr inbounds nuw %"class.llvm::APInt", ptr %5, i32 0, i32 0
  %29 = load ptr, ptr %28, align 8
  %30 = call noundef i32 @_ZNK4llvm5APInt11getNumWordsEv(ptr noundef nonnull align 8 dereferenceable(12) %5)
  %31 = sub i32 %30, 1
  %32 = zext i32 %31 to i64
  %33 = getelementptr inbounds i64, ptr %29, i64 %32
  %34 = load i64, ptr %33, align 8
  %35 = and i64 %34, %27
  store i64 %35, ptr %33, align 8
  br label %36

36:                                               ; preds = %26, %21
  ret ptr %5
}

; Function Attrs: mustprogress nounwind uwtable
define linkonce_odr hidden noundef ptr @_ZNK4llvm8ArrayRefImE4dataEv(ptr noundef nonnull align 8 dereferenceable(16) %0) #0 comdat align 2 {
  %2 = alloca ptr, align 8
  store ptr %0, ptr %2, align 8
  %3 = load ptr, ptr %2, align 8
  %4 = getelementptr inbounds nuw %"class.llvm::ArrayRef", ptr %3, i32 0, i32 0
  %5 = load ptr, ptr %4, align 8
  ret ptr %5
}

; Function Attrs: mustprogress nounwind uwtable
define linkonce_odr noundef nonnull align 4 dereferenceable(4) ptr @_ZSt3minIjERKT_S2_S2_(ptr noundef nonnull align 4 dereferenceable(4) %0, ptr noundef nonnull align 4 dereferenceable(4) %1) #0 comdat {
  %3 = alloca ptr, align 8
  %4 = alloca ptr, align 8
  %5 = alloca ptr, align 8
  store ptr %0, ptr %4, align 8
  store ptr %1, ptr %5, align 8
  %6 = load ptr, ptr %5, align 8
  %7 = load i32, ptr %6, align 4
  %8 = load ptr, ptr %4, align 8
  %9 = load i32, ptr %8, align 4
  %10 = icmp ult i32 %7, %9
  br i1 %10, label %11, label %13

11:                                               ; preds = %2
  %12 = load ptr, ptr %5, align 8
  store ptr %12, ptr %3, align 8
  br label %15

13:                                               ; preds = %2
  %14 = load ptr, ptr %4, align 8
  store ptr %14, ptr %3, align 8
  br label %15

15:                                               ; preds = %13, %11
  %16 = load ptr, ptr %3, align 8
  ret ptr %16
}

; Function Attrs: mustprogress nounwind uwtable
define linkonce_odr hidden noundef i64 @_ZNK4llvm8ArrayRefImE4sizeEv(ptr noundef nonnull align 8 dereferenceable(16) %0) #0 comdat align 2 {
  %2 = alloca ptr, align 8
  store ptr %0, ptr %2, align 8
  %3 = load ptr, ptr %2, align 8
  %4 = getelementptr inbounds nuw %"class.llvm::ArrayRef", ptr %3, i32 0, i32 1
  %5 = load i64, ptr %4, align 8
  ret i64 %5
}

; Function Attrs: mustprogress nounwind uwtable
define internal noundef ptr @_ZL16getClearedMemoryj(i32 noundef %0) #0 {
  %2 = alloca i32, align 4
  %3 = alloca ptr, align 8
  store i32 %0, ptr %2, align 4
  %4 = load i32, ptr %2, align 4
  %5 = zext i32 %4 to i64
  %6 = call { i64, i1 } @llvm.umul.with.overflow.i64(i64 %5, i64 8)
  %7 = extractvalue { i64, i1 } %6, 1
  %8 = extractvalue { i64, i1 } %6, 0
  %9 = select i1 %7, i64 -1, i64 %8
  %10 = call noalias noundef nonnull ptr @_Znam(i64 noundef %9) #9
  store ptr %10, ptr %3, align 8
  %11 = load ptr, ptr %3, align 8
  %12 = load i32, ptr %2, align 4
  %13 = zext i32 %12 to i64
  %14 = mul i64 %13, 8
  call void @llvm.memset.p0.i64(ptr align 8 %11, i8 0, i64 %14, i1 false)
  %15 = load ptr, ptr %3, align 8
  ret ptr %15
}

; Function Attrs: mustprogress nounwind uwtable
define linkonce_odr hidden noundef i32 @_ZNK4llvm5APInt11getNumWordsEv(ptr noundef nonnull align 8 dereferenceable(12) %0) #0 comdat align 2 {
  %2 = alloca ptr, align 8
  store ptr %0, ptr %2, align 8
  %3 = load ptr, ptr %2, align 8
  %4 = getelementptr inbounds nuw %"class.llvm::APInt", ptr %3, i32 0, i32 1
  %5 = load i32, ptr %4, align 8
  %6 = call noundef i32 @_ZN4llvm5APInt11getNumWordsEj(i32 noundef %5)
  ret i32 %6
}

; Function Attrs: mustprogress nounwind uwtable
define linkonce_odr hidden noundef nonnull align 8 dereferenceable(8) ptr @_ZNK4llvm8ArrayRefImEixEm(ptr noundef nonnull align 8 dereferenceable(16) %0, i64 noundef %1) #0 comdat align 2 {
  %3 = alloca ptr, align 8
  %4 = alloca i64, align 8
  store ptr %0, ptr %3, align 8
  store i64 %1, ptr %4, align 8
  %5 = load ptr, ptr %3, align 8
  %6 = getelementptr inbounds nuw %"class.llvm::ArrayRef", ptr %5, i32 0, i32 0
  %7 = load ptr, ptr %6, align 8
  %8 = load i64, ptr %4, align 8
  %9 = getelementptr inbounds i64, ptr %7, i64 %8
  ret ptr %9
}

; Function Attrs: mustprogress nounwind uwtable
define linkonce_odr hidden noundef zeroext i1 @_ZNK4llvm5APInt12isSingleWordEv(ptr noundef nonnull align 8 dereferenceable(12) %0) #0 comdat align 2 {
  %2 = alloca ptr, align 8
  store ptr %0, ptr %2, align 8
  %3 = load ptr, ptr %2, align 8
  %4 = getelementptr inbounds nuw %"class.llvm::APInt", ptr %3, i32 0, i32 1
  %5 = load i32, ptr %4, align 8
  %6 = icmp ule i32 %5, 64
  ret i1 %6
}

; Function Attrs: mustprogress nounwind uwtable
define dso_local void @_ZN4llvm5APInt13initFromArrayENS_8ArrayRefImEE(ptr noundef nonnull align 8 dereferenceable(12) %0, ptr %1, i64 %2) #0 align 2 {
  %4 = alloca %"class.llvm::ArrayRef", align 8
  %5 = alloca ptr, align 8
  %6 = alloca i32, align 4
  %7 = alloca i32, align 4
  %8 = alloca i32, align 4
  %9 = getelementptr inbounds nuw { ptr, i64 }, ptr %4, i32 0, i32 0
  store ptr %1, ptr %9, align 8
  %10 = getelementptr inbounds nuw { ptr, i64 }, ptr %4, i32 0, i32 1
  store i64 %2, ptr %10, align 8
  store ptr %0, ptr %5, align 8
  %11 = load ptr, ptr %5, align 8
  %12 = call noundef zeroext i1 @_ZNK4llvm5APInt12isSingleWordEv(ptr noundef nonnull align 8 dereferenceable(12) %11)
  br i1 %12, label %13, label %17

13:                                               ; preds = %3
  %14 = call noundef nonnull align 8 dereferenceable(8) ptr @_ZNK4llvm8ArrayRefImEixEm(ptr noundef nonnull align 8 dereferenceable(16) %4, i64 noundef 0)
  %15 = load i64, ptr %14, align 8
  %16 = getelementptr inbounds nuw %"class.llvm::APInt", ptr %11, i32 0, i32 0
  store i64 %15, ptr %16, align 8
  br label %32

17:                                               ; preds = %3
  %18 = call noundef i32 @_ZNK4llvm5APInt11getNumWordsEv(ptr noundef nonnull align 8 dereferenceable(12) %11)
  %19 = call noundef ptr @_ZL16getClearedMemoryj(i32 noundef %18)
  %20 = getelementptr inbounds nuw %"class.llvm::APInt", ptr %11, i32 0, i32 0
  store ptr %19, ptr %20, align 8
  %21 = call noundef i64 @_ZNK4llvm8ArrayRefImE4sizeEv(ptr noundef nonnull align 8 dereferenceable(16) %4)
  %22 = trunc i64 %21 to i32
  store i32 %22, ptr %7, align 4
  %23 = call noundef i32 @_ZNK4llvm5APInt11getNumWordsEv(ptr noundef nonnull align 8 dereferenceable(12) %11)
  store i32 %23, ptr %8, align 4
  %24 = call noundef nonnull align 4 dereferenceable(4) ptr @_ZSt3minIjERKT_S2_S2_(ptr noundef nonnull align 4 dereferenceable(4) %7, ptr noundef nonnull align 4 dereferenceable(4) %8)
  %25 = load i32, ptr %24, align 4
  store i32 %25, ptr %6, align 4
  %26 = getelementptr inbounds nuw %"class.llvm::APInt", ptr %11, i32 0, i32 0
  %27 = load ptr, ptr %26, align 8
  %28 = call noundef ptr @_ZNK4llvm8ArrayRefImE4dataEv(ptr noundef nonnull align 8 dereferenceable(16) %4)
  %29 = load i32, ptr %6, align 4
  %30 = mul i32 %29, 8
  %31 = zext i32 %30 to i64
  call void @llvm.memcpy.p0.p0.i64(ptr align 8 %27, ptr align 8 %28, i64 %31, i1 false)
  br label %32

32:                                               ; preds = %17, %13
  %33 = call noundef nonnull align 8 dereferenceable(12) ptr @_ZN4llvm5APInt15clearUnusedBitsEv(ptr noundef nonnull align 8 dereferenceable(12) %11)
  ret void
}

; Function Attrs: mustprogress nounwind uwtable
define linkonce_odr hidden void @_ZN4llvm8ArrayRefImEC2EPKmm(ptr noundef nonnull align 8 dereferenceable(16) %0, ptr noundef %1, i64 noundef %2) unnamed_addr #0 comdat align 2 {
  %4 = alloca ptr, align 8
  %5 = alloca ptr, align 8
  %6 = alloca i64, align 8
  store ptr %0, ptr %4, align 8
  store ptr %1, ptr %5, align 8
  store i64 %2, ptr %6, align 8
  %7 = load ptr, ptr %4, align 8
  %8 = getelementptr inbounds nuw %"class.llvm::ArrayRef", ptr %7, i32 0, i32 0
  %9 = load ptr, ptr %5, align 8
  store ptr %9, ptr %8, align 8
  %10 = getelementptr inbounds nuw %"class.llvm::ArrayRef", ptr %7, i32 0, i32 1
  %11 = load i64, ptr %6, align 8
  store i64 %11, ptr %10, align 8
  ret void
}

; Function Attrs: mustprogress nounwind uwtable
define dso_local void @_ZN4llvm5APIntC2EjjPKm(ptr noundef nonnull align 8 dereferenceable(12) %0, i32 noundef %1, i32 noundef %2, ptr noundef %3) unnamed_addr #0 align 2 {
  %5 = alloca ptr, align 8
  %6 = alloca i32, align 4
  %7 = alloca i32, align 4
  %8 = alloca ptr, align 8
  %9 = alloca %"class.llvm::ArrayRef", align 8
  store ptr %0, ptr %5, align 8
  store i32 %1, ptr %6, align 4
  store i32 %2, ptr %7, align 4
  store ptr %3, ptr %8, align 8
  %10 = load ptr, ptr %5, align 8
  %11 = getelementptr inbounds nuw %"class.llvm::APInt", ptr %10, i32 0, i32 1
  %12 = load i32, ptr %6, align 4
  store i32 %12, ptr %11, align 8
  %13 = load ptr, ptr %8, align 8
  %14 = load i32, ptr %7, align 4
  %15 = zext i32 %14 to i64
  call void @_ZN4llvm8ArrayRefImEC2EPKmm(ptr noundef nonnull align 8 dereferenceable(16) %9, ptr noundef %13, i64 noundef %15)
  %16 = getelementptr inbounds nuw { ptr, i64 }, ptr %9, i32 0, i32 0
  %17 = load ptr, ptr %16, align 8
  %18 = getelementptr inbounds nuw { ptr, i64 }, ptr %9, i32 0, i32 1
  %19 = load i64, ptr %18, align 8
  call void @_ZN4llvm5APInt13initFromArrayENS_8ArrayRefImEE(ptr noundef nonnull align 8 dereferenceable(12) %10, ptr %17, i64 %19)
  ret void
}