; Function Attrs: mustprogress nounwind uwtable
define dso_local void @_ZN4llvm5APIntC2EjjPKm(ptr noundef nonnull writeonly align 8 captures(none) dereferenceable(12) initializes((0, 12)) %0, i32 noundef %1, i32 noundef %2, ptr noundef readonly captures(none) %3) unnamed_addr #0 align 2 {
  %5 = getelementptr inbounds nuw i8, ptr %0, i64 8
  store i32 %1, ptr %5, align 8
  %6 = icmp ult i32 %1, 65
  br i1 %6, label %7, label %16

7:                                                ; preds = %4
  %8 = load i64, ptr %3, align 8
  %9 = add nuw nsw i32 %1, 63
  %10 = and i32 %9, 63
  %11 = xor i32 %10, 63
  %12 = zext nneg i32 %11 to i64
  %13 = lshr i64 -1, %12
  %14 = icmp eq i32 %1, 0
  %spec.store.select.i.i = select i1 %14, i64 0, i64 %13
  %15 = and i64 %8, %spec.store.select.i.i
  store i64 %15, ptr %0, align 8
  br label %_ZN4llvm5APInt13initFromArrayENS_8ArrayRefImEE.exit

16:                                               ; preds = %4
  %17 = zext i32 %1 to i64
  %18 = add nuw nsw i64 %17, 63
  %19 = lshr i64 %18, 6
  %20 = trunc nuw nsw i64 %19 to i32
  %21 = shl nuw nsw i64 %19, 3
  %22 = tail call noalias noundef nonnull ptr @_Znam(i64 noundef %21) #21
  tail call void @llvm.memset.p0.i64(ptr nonnull align 8 %22, i8 0, i64 %21, i1 false)
  store ptr %22, ptr %0, align 8
  %.sroa.speculated.i = tail call i32 @llvm.umin.i32(i32 %20, i32 %2)
  %23 = shl nuw nsw i32 %.sroa.speculated.i, 3
  %24 = zext nneg i32 %23 to i64
  tail call void @llvm.memcpy.p0.p0.i64(ptr nonnull align 8 %22, ptr readonly align 8 %3, i64 %24, i1 false)
  %25 = add i32 %1, 63
  %26 = and i32 %25, 63
  %27 = xor i32 %26, 63
  %28 = zext nneg i32 %27 to i64
  %29 = lshr i64 -1, %28
  %30 = add nuw nsw i64 %19, 4294967295
  %31 = and i64 %30, 4294967295
  %32 = getelementptr inbounds nuw i64, ptr %22, i64 %31
  %33 = load i64, ptr %32, align 8
  %34 = and i64 %33, %29
  store i64 %34, ptr %32, align 8
  br label %_ZN4llvm5APInt13initFromArrayENS_8ArrayRefImEE.exit

_ZN4llvm5APInt13initFromArrayENS_8ArrayRefImEE.exit: ; preds = %7, %16
  ret void
}